; Function Attrs: mustprogress uwtable
define hidden void @_ZN19OpenColorIO_v2_4dev18FormatMetadataImpl19ValidateElementNameERKNSt7__cxx1112basic_stringIcSt11char_traitsIcESaIcEEE(ptr noundef nonnull align 8 dereferenceable(32) %name) local_unnamed_addr #0 align 2 personality ptr @__gxx_personality_v0 {
entry:
  %call = tail call noundef zeroext i1 @_ZNKSt7__cxx1112basic_stringIcSt11char_traitsIcESaIcEE5emptyEv(ptr noundef nonnull align 8 dereferenceable(32) %name) #17
  br i1 %call, label %if.then, label %if.end

if.then:                                          ; preds = %entry
  %exception = tail call ptr @__cxa_allocate_exception(i64 16) #17
  invoke void @_ZN19OpenColorIO_v2_4dev9ExceptionC1EPKc(ptr noundef nonnull align 8 dereferenceable(16) %exception, ptr noundef nonnull @.str.13)
          to label %invoke.cont unwind label %lpad

invoke.cont:                                      ; preds = %if.then
  tail call void @__cxa_throw(ptr nonnull %exception, ptr nonnull @_ZTIN19OpenColorIO_v2_4dev9ExceptionE, ptr nonnull @_ZN19OpenColorIO_v2_4dev9ExceptionD1Ev) #18
  unreachable

lpad:                                             ; preds = %if.then
  %0 = landingpad { ptr, i32 }
          cleanup
  br label %eh.resume

if.end:                                           ; preds = %entry
  %call1 = tail call noundef ptr @_ZNKSt7__cxx1112basic_stringIcSt11char_traitsIcESaIcEE5c_strEv(ptr noundef nonnull align 8 dereferenceable(32) %name) #17
  %call2 = tail call i32 @strcmp(ptr noundef nonnull dereferenceable(1) %call1, ptr noundef nonnull dereferenceable(5) @_ZN19OpenColorIO_v2_4devL13METADATA_ROOTE) #22
  %cmp = icmp eq i32 %call2, 0
  br i1 %cmp, label %if.then3, label %if.end7

if.then3:                                         ; preds = %if.end
  %exception4 = tail call ptr @__cxa_allocate_exception(i64 16) #17
  invoke void @_ZN19OpenColorIO_v2_4dev9ExceptionC1EPKc(ptr noundef nonnull align 8 dereferenceable(16) %exception4, ptr noundef nonnull @.str.15)
          to label %invoke.cont6 unwind label %lpad5

invoke.cont6:                                     ; preds = %if.then3
  tail call void @__cxa_throw(ptr nonnull %exception4, ptr nonnull @_ZTIN19OpenColorIO_v2_4dev9ExceptionE, ptr nonnull @_ZN19OpenColorIO_v2_4dev9ExceptionD1Ev) #18
  unreachable

lpad5:                                            ; preds = %if.then3
  %1 = landingpad { ptr, i32 }
          cleanup
  br label %eh.resume

if.end7:                                          ; preds = %if.end
  ret void

eh.resume:                                        ; preds = %lpad5, %lpad
  %exception4.sink = phi ptr [ %exception4, %lpad5 ], [ %exception, %lpad ]
  %.pn = phi { ptr, i32 } [ %1, %lpad5 ], [ %0, %lpad ]
  tail call void @__cxa_free_exception(ptr %exception4.sink) #17
  resume { ptr, i32 } %.pn
}